target datalayout = "e-m:e-p270:32:32-p271:32:32-p272:64:64-i64:64-i128:128-f80:128-n8:16:32:64-S128"
target triple = "x86_64-pc-linux-gnu"

%struct.pmix_class_t = type { ptr, ptr, ptr, ptr, i32, i32, ptr, ptr, i64 }
%struct.pmix_object_t = type { %union.pthread_mutex_t, ptr, i32, %struct.pmix_tma }
%union.pthread_mutex_t = type { %struct.__pthread_mutex_s }
%struct.__pthread_mutex_s = type { i32, i32, i32, i32, i32, i16, i16, %struct.__pthread_internal_list }
%struct.__pthread_internal_list = type { ptr, ptr }
%struct.pmix_tma = type { ptr, ptr, ptr, ptr, ptr, ptr, ptr, ptr }
%struct.pmix_proc = type { [256 x i8], i32 }
%struct.prte_plm_base_module_1_0_0_t = type { ptr, ptr, ptr, ptr, ptr, ptr, ptr, ptr, ptr }
%struct.timeval = type { i64, i64 }
%struct.prte_state_caddy_t = type { %struct.pmix_object_t, %struct.event, ptr, i32, %struct.pmix_proc, i32 }
%struct.event = type { %struct.event_callback, %union.anon.0, i32, ptr, %union.anon.2, i16, i16, %struct.timeval }
%struct.event_callback = type { %struct.anon, i16, i8, i8, %union.anon, ptr }
%struct.anon = type { ptr, ptr }
%union.anon = type { ptr }
%union.anon.0 = type { %struct.anon.1 }
%struct.anon.1 = type { ptr, ptr }
%union.anon.2 = type { %struct.anon.3 }
%struct.anon.3 = type { %struct.anon.4, %struct.timeval }
%struct.anon.4 = type { ptr, ptr }

@.str.4 = private unnamed_addr constant [21 x i8] c"pthread_mutex_lock()\00", align 1
@prte_plm = external global %struct.prte_plm_base_module_1_0_0_t, align 8
@terminate_dvm = internal global i8 0, align 1
@dvm_terminated = internal global i8 0, align 1

; Function Attrs: inlinehint nounwind uwtable
define internal void @pmix_tma_free(ptr noundef %0, ptr noundef %1) #3 {
  %3 = alloca ptr, align 8
  %4 = alloca ptr, align 8
  store ptr %0, ptr %3, align 8, !tbaa !36
  store ptr %1, ptr %4, align 8, !tbaa !19
  %5 = load ptr, ptr %3, align 8, !tbaa !36
  %6 = icmp ne ptr null, %5
  br i1 %6, label %7, label %13

7:                                                ; preds = %2
  %8 = load ptr, ptr %3, align 8, !tbaa !36
  %9 = getelementptr inbounds nuw %struct.pmix_tma, ptr %8, i32 0, i32 5
  %10 = load ptr, ptr %9, align 8, !tbaa !195
  %11 = load ptr, ptr %3, align 8, !tbaa !36
  %12 = load ptr, ptr %4, align 8, !tbaa !19
  call void %10(ptr noundef %11, ptr noundef %12)
  br label %15

13:                                               ; preds = %2
  %14 = load ptr, ptr %4, align 8, !tbaa !19
  call void @free(ptr noundef %14) #13
  br label %15

15:                                               ; preds = %13, %7
  ret void
}

; Function Attrs: inlinehint nounwind uwtable
define internal void @pmix_obj_run_destructors(ptr noundef %0) #3 {
  %2 = alloca ptr, align 8
  %3 = alloca ptr, align 8
  store ptr %0, ptr %2, align 8, !tbaa !31
  call void @llvm.lifetime.start.p0(i64 8, ptr %3) #13
  %4 = load ptr, ptr %2, align 8, !tbaa !31
  %5 = getelementptr inbounds nuw %struct.pmix_object_t, ptr %4, i32 0, i32 1
  %6 = load ptr, ptr %5, align 8, !tbaa !13
  %7 = getelementptr inbounds nuw %struct.pmix_class_t, ptr %6, i32 0, i32 7
  %8 = load ptr, ptr %7, align 8, !tbaa !193
  store ptr %8, ptr %3, align 8, !tbaa !19
  br label %9

9:                                                ; preds = %13, %1
  %10 = load ptr, ptr %3, align 8, !tbaa !19
  %11 = load ptr, ptr %10, align 8, !tbaa !19
  %12 = icmp ne ptr null, %11
  br i1 %12, label %13, label %19

13:                                               ; preds = %9
  %14 = load ptr, ptr %3, align 8, !tbaa !19
  %15 = load ptr, ptr %14, align 8, !tbaa !19
  %16 = load ptr, ptr %2, align 8, !tbaa !31
  call void %15(ptr noundef %16)
  %17 = load ptr, ptr %3, align 8, !tbaa !19
  %18 = getelementptr inbounds nuw ptr, ptr %17, i32 1
  store ptr %18, ptr %3, align 8, !tbaa !19
  br label %9, !llvm.loop !194

19:                                               ; preds = %9
  call void @llvm.lifetime.end.p0(i64 8, ptr %3) #13
  ret void
}

; Function Attrs: alwaysinline nounwind uwtable
define internal i32 @pmix_obj_update(ptr noundef %0, i32 noundef %1) #6 {
  %3 = alloca ptr, align 8
  %4 = alloca i32, align 4
  %5 = alloca i32, align 4
  store ptr %0, ptr %3, align 8, !tbaa !31
  store i32 %1, ptr %4, align 4, !tbaa !3
  call void @llvm.lifetime.start.p0(i64 4, ptr %5) #13
  %6 = load ptr, ptr %3, align 8, !tbaa !31
  %7 = getelementptr inbounds nuw %struct.pmix_object_t, ptr %6, i32 0, i32 0
  %8 = call i32 @pthread_mutex_lock(ptr noundef %7) #13
  store i32 %8, ptr %5, align 4, !tbaa !3
  %9 = load i32, ptr %5, align 4, !tbaa !3
  %10 = icmp eq i32 %9, 35
  br i1 %10, label %11, label %14

11:                                               ; preds = %2
  %12 = load i32, ptr %5, align 4, !tbaa !3
  %13 = call ptr @__errno_location() #15
  store i32 %12, ptr %13, align 4, !tbaa !3
  call void @perror(ptr noundef @.str.4)
  call void @abort() #16
  unreachable

14:                                               ; preds = %2
  %15 = load i32, ptr %4, align 4, !tbaa !3
  %16 = load ptr, ptr %3, align 8, !tbaa !31
  %17 = getelementptr inbounds nuw %struct.pmix_object_t, ptr %16, i32 0, i32 2
  %18 = load i32, ptr %17, align 8, !tbaa !16
  %19 = add nsw i32 %18, %15
  store i32 %19, ptr %17, align 8, !tbaa !16
  store i32 %19, ptr %5, align 4, !tbaa !3
  %20 = load ptr, ptr %3, align 8, !tbaa !31
  %21 = getelementptr inbounds nuw %struct.pmix_object_t, ptr %20, i32 0, i32 0
  %22 = call i32 @pthread_mutex_unlock(ptr noundef %21) #13
  %23 = load i32, ptr %5, align 4, !tbaa !3
  call void @llvm.lifetime.end.p0(i64 4, ptr %5) #13
  ret i32 %23
}

; Function Attrs: inlinehint nounwind uwtable
define internal void @pmix_atomic_rmb() #3 {
  fence acquire
  ret void
}

; Function Attrs: nounwind uwtable
define internal void @cleanup_job(i32 noundef %0, i16 noundef signext %1, ptr noundef %2) #0 {
  %4 = alloca i32, align 4
  %5 = alloca i16, align 2
  %6 = alloca ptr, align 8
  %7 = alloca ptr, align 8
  %8 = alloca ptr, align 8
  %9 = alloca ptr, align 8
  store i32 %0, ptr %4, align 4, !tbaa !3
  store i16 %1, ptr %5, align 2, !tbaa !48
  store ptr %2, ptr %6, align 8, !tbaa !19
  call void @llvm.lifetime.start.p0(i64 8, ptr %7) #13
  %10 = load ptr, ptr %6, align 8, !tbaa !19
  store ptr %10, ptr %7, align 8, !tbaa !19
  call void @pmix_atomic_rmb()
  %11 = load i8, ptr @terminate_dvm, align 1, !tbaa !96, !range !100, !noundef !101
  %12 = trunc i8 %11 to i1
  br i1 %12, label %13, label %19

13:                                               ; preds = %3
  %14 = load i8, ptr @dvm_terminated, align 1, !tbaa !96, !range !100, !noundef !101
  %15 = trunc i8 %14 to i1
  br i1 %15, label %19, label %16

16:                                               ; preds = %13
  store i8 1, ptr @dvm_terminated, align 1, !tbaa !96
  %17 = load ptr, ptr getelementptr inbounds nuw (%struct.prte_plm_base_module_1_0_0_t, ptr @prte_plm, i32 0, i32 5), align 8, !tbaa !50
  %18 = call i32 %17()
  br label %19

19:                                               ; preds = %16, %13, %3
  %20 = load ptr, ptr %7, align 8, !tbaa !19
  %21 = getelementptr inbounds nuw %struct.prte_state_caddy_t, ptr %20, i32 0, i32 2
  %22 = load ptr, ptr %21, align 8, !tbaa !52
  %23 = icmp ne ptr null, %22
  br i1 %23, label %24, label %55

24:                                               ; preds = %19
  br label %25

25:                                               ; preds = %24
  call void @llvm.lifetime.start.p0(i64 8, ptr %8) #13
  %26 = load ptr, ptr %7, align 8, !tbaa !19
  %27 = getelementptr inbounds nuw %struct.prte_state_caddy_t, ptr %26, i32 0, i32 2
  %28 = load ptr, ptr %27, align 8, !tbaa !52
  store ptr %28, ptr %8, align 8, !tbaa !31
  %29 = load ptr, ptr %8, align 8, !tbaa !31
  %30 = call i32 @pmix_obj_update(ptr noundef %29, i32 noundef -1)
  %31 = icmp eq i32 0, %30
  br i1 %31, label %32, label %52

32:                                               ; preds = %25
  %33 = load ptr, ptr %8, align 8, !tbaa !31
  call void @pmix_obj_run_destructors(ptr noundef %33)
  %34 = load ptr, ptr %8, align 8, !tbaa !31
  %35 = getelementptr inbounds nuw %struct.pmix_object_t, ptr %34, i32 0, i32 3
  %36 = getelementptr inbounds nuw %struct.pmix_tma, ptr %35, i32 0, i32 5
  %37 = load ptr, ptr %36, align 8, !tbaa !33
  %38 = icmp ne ptr null, %37
  br i1 %38, label %39, label %45

39:                                               ; preds = %32
  %40 = load ptr, ptr %8, align 8, !tbaa !31
  %41 = getelementptr inbounds nuw %struct.pmix_object_t, ptr %40, i32 0, i32 3
  %42 = load ptr, ptr %7, align 8, !tbaa !19
  %43 = getelementptr inbounds nuw %struct.prte_state_caddy_t, ptr %42, i32 0, i32 2
  %44 = load ptr, ptr %43, align 8, !tbaa !52
  call void @pmix_tma_free(ptr noundef %41, ptr noundef %44)
  br label %49

45:                                               ; preds = %32
  %46 = load ptr, ptr %7, align 8, !tbaa !19
  %47 = getelementptr inbounds nuw %struct.prte_state_caddy_t, ptr %46, i32 0, i32 2
  %48 = load ptr, ptr %47, align 8, !tbaa !52
  call void @free(ptr noundef %48) #13
  br label %49

49:                                               ; preds = %45, %39
  %50 = load ptr, ptr %7, align 8, !tbaa !19
  %51 = getelementptr inbounds nuw %struct.prte_state_caddy_t, ptr %50, i32 0, i32 2
  store ptr null, ptr %51, align 8, !tbaa !52
  br label %52

52:                                               ; preds = %49, %25
  call void @llvm.lifetime.end.p0(i64 8, ptr %8) #13
  br label %53

53:                                               ; preds = %52
  br label %54

54:                                               ; preds = %53
  br label %55

55:                                               ; preds = %54, %19
  br label %56

56:                                               ; preds = %55
  call void @llvm.lifetime.start.p0(i64 8, ptr %9) #13
  %57 = load ptr, ptr %7, align 8, !tbaa !19
  store ptr %57, ptr %9, align 8, !tbaa !31
  %58 = load ptr, ptr %9, align 8, !tbaa !31
  %59 = call i32 @pmix_obj_update(ptr noundef %58, i32 noundef -1)
  %60 = icmp eq i32 0, %59
  br i1 %60, label %61, label %75

61:                                               ; preds = %56
  %62 = load ptr, ptr %9, align 8, !tbaa !31
  call void @pmix_obj_run_destructors(ptr noundef %62)
  %63 = load ptr, ptr %9, align 8, !tbaa !31
  %64 = getelementptr inbounds nuw %struct.pmix_object_t, ptr %63, i32 0, i32 3
  %65 = getelementptr inbounds nuw %struct.pmix_tma, ptr %64, i32 0, i32 5
  %66 = load ptr, ptr %65, align 8, !tbaa !33
  %67 = icmp ne ptr null, %66
  br i1 %67, label %68, label %72

68:                                               ; preds = %61
  %69 = load ptr, ptr %9, align 8, !tbaa !31
  %70 = getelementptr inbounds nuw %struct.pmix_object_t, ptr %69, i32 0, i32 3
  %71 = load ptr, ptr %7, align 8, !tbaa !19
  call void @pmix_tma_free(ptr noundef %70, ptr noundef %71)
  br label %74

72:                                               ; preds = %61
  %73 = load ptr, ptr %7, align 8, !tbaa !19
  call void @free(ptr noundef %73) #13
  br label %74

74:                                               ; preds = %72, %68
  store ptr null, ptr %7, align 8, !tbaa !19
  br label %75

75:                                               ; preds = %74, %56
  call void @llvm.lifetime.end.p0(i64 8, ptr %9) #13
  br label %76

76:                                               ; preds = %75
  br label %77

77:                                               ; preds = %76
  call void @llvm.lifetime.end.p0(i64 8, ptr %7) #13
  ret void
}