; Function Attrs: nounwind uwtable
define internal void @cleanup_job(i32 %0, i16 signext %1, ptr noundef %2) #0 {
  fence acquire
  %.b18 = load i1, ptr @terminate_dvm, align 1
  br i1 %.b18, label %4, label %8

4:                                                ; preds = %3
  %.b1719 = load i1, ptr @dvm_terminated, align 1
  br i1 %.b1719, label %8, label %5

5:                                                ; preds = %4
  store i1 true, ptr @dvm_terminated, align 1
  %6 = load ptr, ptr getelementptr inbounds nuw (i8, ptr @prte_plm, i64 40), align 8, !tbaa !41
  %7 = tail call i32 %6() #16
  br label %8

8:                                                ; preds = %5, %4, %3
  %9 = getelementptr inbounds nuw i8, ptr %2, i64 248
  %10 = load ptr, ptr %9, align 8, !tbaa !43
  %.not = icmp eq ptr %10, null
  br i1 %.not, label %38, label %11

11:                                               ; preds = %8
  %12 = tail call i32 @pthread_mutex_lock(ptr noundef nonnull %10) #16
  %13 = icmp eq i32 %12, 35
  br i1 %13, label %14, label %pmix_obj_update.exit

14:                                               ; preds = %11
  %15 = tail call ptr @__errno_location() #17
  store i32 35, ptr %15, align 4, !tbaa !3
  tail call void @perror(ptr noundef nonnull @.str.4) #18
  tail call void @abort() #19
  unreachable

pmix_obj_update.exit:                             ; preds = %11
  %16 = getelementptr inbounds nuw i8, ptr %10, i64 48
  %17 = load i32, ptr %16, align 8, !tbaa !16
  %18 = add nsw i32 %17, -1
  store i32 %18, ptr %16, align 8, !tbaa !16
  %19 = tail call i32 @pthread_mutex_unlock(ptr noundef nonnull %10) #16
  %20 = icmp eq i32 %18, 0
  br i1 %20, label %21, label %38

21:                                               ; preds = %pmix_obj_update.exit
  %22 = getelementptr inbounds nuw i8, ptr %10, i64 40
  %23 = load ptr, ptr %22, align 8, !tbaa !13
  %24 = getelementptr inbounds nuw i8, ptr %23, i64 48
  %25 = load ptr, ptr %24, align 8, !tbaa !36
  %26 = load ptr, ptr %25, align 8, !tbaa !18
  %.not6.i = icmp eq ptr %26, null
  br i1 %.not6.i, label %pmix_obj_run_destructors.exit, label %.lr.ph.i

.lr.ph.i:                                         ; preds = %21, %.lr.ph.i
  %27 = phi ptr [ %29, %.lr.ph.i ], [ %26, %21 ]
  %.07.i = phi ptr [ %28, %.lr.ph.i ], [ %25, %21 ]
  tail call void %27(ptr noundef nonnull %10) #16
  %28 = getelementptr inbounds nuw i8, ptr %.07.i, i64 8
  %29 = load ptr, ptr %28, align 8, !tbaa !18
  %.not.i = icmp eq ptr %29, null
  br i1 %.not.i, label %pmix_obj_run_destructors.exit, label %.lr.ph.i, !llvm.loop !37

pmix_obj_run_destructors.exit:                    ; preds = %.lr.ph.i, %21
  %30 = getelementptr inbounds nuw i8, ptr %10, i64 96
  %31 = load ptr, ptr %30, align 8, !tbaa !38
  %.not20 = icmp eq ptr %31, null
  br i1 %.not20, label %35, label %32

32:                                               ; preds = %pmix_obj_run_destructors.exit
  %33 = getelementptr inbounds nuw i8, ptr %10, i64 56
  %34 = load ptr, ptr %9, align 8, !tbaa !43
  tail call void %31(ptr noundef nonnull %33, ptr noundef %34) #16
  br label %37

35:                                               ; preds = %pmix_obj_run_destructors.exit
  %36 = load ptr, ptr %9, align 8, !tbaa !43
  tail call void @free(ptr noundef %36) #16
  br label %37

37:                                               ; preds = %35, %32
  store ptr null, ptr %9, align 8, !tbaa !43
  br label %38

38:                                               ; preds = %pmix_obj_update.exit, %37, %8
  %39 = tail call i32 @pthread_mutex_lock(ptr noundef nonnull %2) #16
  %40 = icmp eq i32 %39, 35
  br i1 %40, label %41, label %pmix_obj_update.exit22

41:                                               ; preds = %38
  %42 = tail call ptr @__errno_location() #17
  store i32 35, ptr %42, align 4, !tbaa !3
  tail call void @perror(ptr noundef nonnull @.str.4) #18
  tail call void @abort() #19
  unreachable

pmix_obj_update.exit22:                           ; preds = %38
  %43 = getelementptr inbounds nuw i8, ptr %2, i64 48
  %44 = load i32, ptr %43, align 8, !tbaa !16
  %45 = add nsw i32 %44, -1
  store i32 %45, ptr %43, align 8, !tbaa !16
  %46 = tail call i32 @pthread_mutex_unlock(ptr noundef nonnull %2) #16
  %47 = icmp eq i32 %45, 0
  br i1 %47, label %48, label %62

48:                                               ; preds = %pmix_obj_update.exit22
  %49 = getelementptr inbounds nuw i8, ptr %2, i64 40
  %50 = load ptr, ptr %49, align 8, !tbaa !13
  %51 = getelementptr inbounds nuw i8, ptr %50, i64 48
  %52 = load ptr, ptr %51, align 8, !tbaa !36
  %53 = load ptr, ptr %52, align 8, !tbaa !18
  %.not6.i24 = icmp eq ptr %53, null
  br i1 %.not6.i24, label %pmix_obj_run_destructors.exit28, label %.lr.ph.i25

.lr.ph.i25:                                       ; preds = %48, %.lr.ph.i25
  %54 = phi ptr [ %56, %.lr.ph.i25 ], [ %53, %48 ]
  %.07.i26 = phi ptr [ %55, %.lr.ph.i25 ], [ %52, %48 ]
  tail call void %54(ptr noundef nonnull %2) #16
  %55 = getelementptr inbounds nuw i8, ptr %.07.i26, i64 8
  %56 = load ptr, ptr %55, align 8, !tbaa !18
  %.not.i27 = icmp eq ptr %56, null
  br i1 %.not.i27, label %pmix_obj_run_destructors.exit28, label %.lr.ph.i25, !llvm.loop !37

pmix_obj_run_destructors.exit28:                  ; preds = %.lr.ph.i25, %48
  %57 = getelementptr inbounds nuw i8, ptr %2, i64 96
  %58 = load ptr, ptr %57, align 8, !tbaa !38
  %.not21 = icmp eq ptr %58, null
  br i1 %.not21, label %61, label %59

59:                                               ; preds = %pmix_obj_run_destructors.exit28
  %60 = getelementptr inbounds nuw i8, ptr %2, i64 56
  tail call void %58(ptr noundef nonnull %60, ptr noundef nonnull %2) #16
  br label %62

61:                                               ; preds = %pmix_obj_run_destructors.exit28
  tail call void @free(ptr noundef nonnull %2) #16
  br label %62

62:                                               ; preds = %59, %61, %pmix_obj_update.exit22
  ret void
}